
ADCS_Bachelor.elf:     file format elf32-avr

Sections:
Idx Name          Size      VMA       LMA       File off  Algn
  0 .data         000000ec  00800100  00000518  0000058c  2**0
                  CONTENTS, ALLOC, LOAD, DATA
  1 .text         00000518  00000000  00000000  00000074  2**1
                  CONTENTS, ALLOC, LOAD, READONLY, CODE
  2 .comment      00000030  00000000  00000000  00000678  2**0
                  CONTENTS, READONLY
  3 .note.gnu.avr.deviceinfo 00000040  00000000  00000000  000006a8  2**2
                  CONTENTS, READONLY
  4 .debug_aranges 00000130  00000000  00000000  000006e8  2**0
                  CONTENTS, READONLY, DEBUGGING
  5 .debug_info   00001578  00000000  00000000  00000818  2**0
                  CONTENTS, READONLY, DEBUGGING
  6 .debug_abbrev 00000aa6  00000000  00000000  00001d90  2**0
                  CONTENTS, READONLY, DEBUGGING
  7 .debug_line   00000974  00000000  00000000  00002836  2**0
                  CONTENTS, READONLY, DEBUGGING
  8 .debug_frame  000002c4  00000000  00000000  000031ac  2**2
                  CONTENTS, READONLY, DEBUGGING
  9 .debug_str    000006c8  00000000  00000000  00003470  2**0
                  CONTENTS, READONLY, DEBUGGING
 10 .debug_loc    00000ac0  00000000  00000000  00003b38  2**0
                  CONTENTS, READONLY, DEBUGGING
 11 .debug_ranges 000000f0  00000000  00000000  000045f8  2**0
                  CONTENTS, READONLY, DEBUGGING

Disassembly of section .text:

00000000 <__vectors>:
   0:	0c 94 34 00 	jmp	0x68	; 0x68 <__ctors_end>
   4:	0c 94 49 00 	jmp	0x92	; 0x92 <__bad_interrupt>
   8:	0c 94 49 00 	jmp	0x92	; 0x92 <__bad_interrupt>
   c:	0c 94 49 00 	jmp	0x92	; 0x92 <__bad_interrupt>
  10:	0c 94 49 00 	jmp	0x92	; 0x92 <__bad_interrupt>
  14:	0c 94 49 00 	jmp	0x92	; 0x92 <__bad_interrupt>
  18:	0c 94 49 00 	jmp	0x92	; 0x92 <__bad_interrupt>
  1c:	0c 94 49 00 	jmp	0x92	; 0x92 <__bad_interrupt>
  20:	0c 94 49 00 	jmp	0x92	; 0x92 <__bad_interrupt>
  24:	0c 94 49 00 	jmp	0x92	; 0x92 <__bad_interrupt>
  28:	0c 94 49 00 	jmp	0x92	; 0x92 <__bad_interrupt>
  2c:	0c 94 49 00 	jmp	0x92	; 0x92 <__bad_interrupt>
  30:	0c 94 49 00 	jmp	0x92	; 0x92 <__bad_interrupt>
  34:	0c 94 49 00 	jmp	0x92	; 0x92 <__bad_interrupt>
  38:	0c 94 49 00 	jmp	0x92	; 0x92 <__bad_interrupt>
  3c:	0c 94 49 00 	jmp	0x92	; 0x92 <__bad_interrupt>
  40:	0c 94 49 00 	jmp	0x92	; 0x92 <__bad_interrupt>
  44:	0c 94 49 00 	jmp	0x92	; 0x92 <__bad_interrupt>
  48:	0c 94 49 00 	jmp	0x92	; 0x92 <__bad_interrupt>
  4c:	0c 94 49 00 	jmp	0x92	; 0x92 <__bad_interrupt>
  50:	0c 94 49 00 	jmp	0x92	; 0x92 <__bad_interrupt>
  54:	0c 94 49 00 	jmp	0x92	; 0x92 <__bad_interrupt>
  58:	0c 94 49 00 	jmp	0x92	; 0x92 <__bad_interrupt>
  5c:	0c 94 49 00 	jmp	0x92	; 0x92 <__bad_interrupt>
  60:	0c 94 49 00 	jmp	0x92	; 0x92 <__bad_interrupt>
  64:	0c 94 49 00 	jmp	0x92	; 0x92 <__bad_interrupt>

00000068 <__ctors_end>:
  68:	11 24       	eor	r1, r1
  6a:	1f be       	out	0x3f, r1	; 63
  6c:	cf ef       	ldi	r28, 0xFF	; 255
  6e:	d8 e0       	ldi	r29, 0x08	; 8
  70:	de bf       	out	0x3e, r29	; 62
  72:	cd bf       	out	0x3d, r28	; 61

00000074 <__do_copy_data>:
  74:	11 e0       	ldi	r17, 0x01	; 1
  76:	a0 e0       	ldi	r26, 0x00	; 0
  78:	b1 e0       	ldi	r27, 0x01	; 1
  7a:	e8 e1       	ldi	r30, 0x18	; 24
  7c:	f5 e0       	ldi	r31, 0x05	; 5
  7e:	02 c0       	rjmp	.+4      	; 0x84 <__do_copy_data+0x10>
  80:	05 90       	lpm	r0, Z+
  82:	0d 92       	st	X+, r0
  84:	ac 3e       	cpi	r26, 0xEC	; 236
  86:	b1 07       	cpc	r27, r17
  88:	d9 f7       	brne	.-10     	; 0x80 <__do_copy_data+0xc>
  8a:	0e 94 4b 00 	call	0x96	; 0x96 <main>
  8e:	0c 94 8a 02 	jmp	0x514	; 0x514 <_exit>

00000092 <__bad_interrupt>:
  92:	0c 94 00 00 	jmp	0	; 0x0 <__vectors>

00000096 <main>:
#define UBRR_VALUE ((F_CPU / (BAUDRATE * 16UL)) - 1 )


int main(void)
{
	initUSART();
  96:	0e 94 6e 01 	call	0x2dc	; 0x2dc <initUSART>
	spiInit();
  9a:	0e 94 bb 00 	call	0x176	; 0x176 <spiInit>
	printString("\r\nStarting connection test, please wait...");
  9e:	80 e0       	ldi	r24, 0x00	; 0
  a0:	91 e0       	ldi	r25, 0x01	; 1
  a2:	0e 94 87 01 	call	0x30e	; 0x30e <printString>
	printString("\r\nIf the program holds here, check your connections.");
  a6:	8b e2       	ldi	r24, 0x2B	; 43
  a8:	91 e0       	ldi	r25, 0x01	; 1
  aa:	0e 94 87 01 	call	0x30e	; 0x30e <printString>
	#else
		//round up by default
		__ticks_dc = (uint32_t)(ceil(fabs(__tmp)));
	#endif

	__builtin_avr_delay_cycles(__ticks_dc);
  ae:	2f ef       	ldi	r18, 0xFF	; 255
  b0:	83 ed       	ldi	r24, 0xD3	; 211
  b2:	90 e3       	ldi	r25, 0x30	; 48
  b4:	21 50       	subi	r18, 0x01	; 1
  b6:	80 40       	sbci	r24, 0x00	; 0
  b8:	90 40       	sbci	r25, 0x00	; 0
  ba:	e1 f7       	brne	.-8      	; 0xb4 <main+0x1e>
  bc:	00 c0       	rjmp	.+0      	; 0xbe <main+0x28>
  be:	00 00       	nop
	_delay_ms(1000);
	WhoAmICheck();
  c0:	0e 94 12 01 	call	0x224	; 0x224 <WhoAmICheck>
	
	uint8_t testbyte = 0x00;
	uint8_t testbyte2 = 0x00;
		
	testbyte = SPIreadByte(PIN_XG, CTRL_REG4);
  c4:	6e e1       	ldi	r22, 0x1E	; 30
  c6:	81 e0       	ldi	r24, 0x01	; 1
  c8:	0e 94 02 01 	call	0x204	; 0x204 <SPIreadByte>
  cc:	c8 2f       	mov	r28, r24
	printString("\r\nReading data from CTRL_REG4 (Expecting 56): ");
  ce:	80 e6       	ldi	r24, 0x60	; 96
  d0:	91 e0       	ldi	r25, 0x01	; 1
  d2:	0e 94 87 01 	call	0x30e	; 0x30e <printString>
	printByte(testbyte);
  d6:	8c 2f       	mov	r24, r28
  d8:	0e 94 9d 01 	call	0x33a	; 0x33a <printByte>
	printString("");
  dc:	8e eb       	ldi	r24, 0xBE	; 190
  de:	91 e0       	ldi	r25, 0x01	; 1
  e0:	0e 94 87 01 	call	0x30e	; 0x30e <printString>
		
	testbyte2 = SPIreadByte(PIN_M, CTRL_REG3_M);
  e4:	62 e2       	ldi	r22, 0x22	; 34
  e6:	82 e0       	ldi	r24, 0x02	; 2
  e8:	0e 94 02 01 	call	0x204	; 0x204 <SPIreadByte>
  ec:	c8 2f       	mov	r28, r24
	printString("\r\nReading data from CTRL_REG3_M (Expecting 3): ");
  ee:	8f e8       	ldi	r24, 0x8F	; 143
  f0:	91 e0       	ldi	r25, 0x01	; 1
  f2:	0e 94 87 01 	call	0x30e	; 0x30e <printString>
	printByte(testbyte2);
  f6:	8c 2f       	mov	r24, r28
  f8:	0e 94 9d 01 	call	0x33a	; 0x33a <printByte>
	printString("");
  fc:	8e eb       	ldi	r24, 0xBE	; 190
  fe:	91 e0       	ldi	r25, 0x01	; 1
 100:	0e 94 87 01 	call	0x30e	; 0x30e <printString>
		
	
	initMag();
 104:	0e 94 a1 00 	call	0x142	; 0x142 <initMag>
	initGyro();
 108:	0e 94 87 00 	call	0x10e	; 0x10e <initGyro>
 10c:	ff cf       	rjmp	.-2      	; 0x10c <main+0x76>

0000010e <initGyro>:
void interuptGyro(void){
	
}


void calibGyro(void){
 10e:	40 ec       	ldi	r20, 0xC0	; 192
 110:	60 e1       	ldi	r22, 0x10	; 16
 112:	81 e0       	ldi	r24, 0x01	; 1
 114:	0e 94 50 01 	call	0x2a0	; 0x2a0 <SPIwriteByte>
 118:	40 e0       	ldi	r20, 0x00	; 0
 11a:	61 e1       	ldi	r22, 0x11	; 17
 11c:	81 e0       	ldi	r24, 0x01	; 1
 11e:	0e 94 50 01 	call	0x2a0	; 0x2a0 <SPIwriteByte>
 122:	40 e0       	ldi	r20, 0x00	; 0
 124:	62 e1       	ldi	r22, 0x12	; 18
 126:	81 e0       	ldi	r24, 0x01	; 1
 128:	0e 94 50 01 	call	0x2a0	; 0x2a0 <SPIwriteByte>
 12c:	48 e3       	ldi	r20, 0x38	; 56
 12e:	6e e1       	ldi	r22, 0x1E	; 30
 130:	81 e0       	ldi	r24, 0x01	; 1
 132:	0e 94 50 01 	call	0x2a0	; 0x2a0 <SPIwriteByte>
 136:	40 e0       	ldi	r20, 0x00	; 0
 138:	63 e1       	ldi	r22, 0x13	; 19
 13a:	81 e0       	ldi	r24, 0x01	; 1
 13c:	0e 94 50 01 	call	0x2a0	; 0x2a0 <SPIwriteByte>
 140:	08 95       	ret

00000142 <initMag>:
		bit 0:		self-test enable */	
	//	Default CTRL_REG1_M = 0x10
	if(magTempCompensationEnable){tempRegValue = (1<<7);}
	tempRegValue |= (magXYPerformance & 0x3) << 5;
	tempRegValue |= (magSampleRate & 0x7) << 2;
	SPIwriteByte(PIN_M, CTRL_REG1_M, tempRegValue);
 142:	4c e7       	ldi	r20, 0x7C	; 124
 144:	60 e2       	ldi	r22, 0x20	; 32
 146:	82 e0       	ldi	r24, 0x02	; 2
 148:	0e 94 50 01 	call	0x2a0	; 0x2a0 <SPIwriteByte>
		case 16:
		tempRegValue |= (0x3 << 5);
		break;
		// Otherwise we'll default to 4 gauss (00)
	}
	SPIwriteByte(PIN_M, CTRL_REG2_M, tempRegValue);
 14c:	40 e0       	ldi	r20, 0x00	; 0
 14e:	61 e2       	ldi	r22, 0x21	; 33
 150:	82 e0       	ldi	r24, 0x02	; 2
 152:	0e 94 50 01 	call	0x2a0	; 0x2a0 <SPIwriteByte>
		rest:		always 0 */
	//	Default CTRL_REG3_M = 0x03
	tempRegValue = 0;
	if(magLowPowerEnable){ tempRegValue = (1<<5);}
	tempRegValue |= (magOperatingMode & 0x3);
	SPIwriteByte(PIN_M, CTRL_REG3_M, tempRegValue);
 156:	40 e0       	ldi	r20, 0x00	; 0
 158:	62 e2       	ldi	r22, 0x22	; 34
 15a:	82 e0       	ldi	r24, 0x02	; 2
 15c:	0e 94 50 01 	call	0x2a0	; 0x2a0 <SPIwriteByte>
		bit 1:		Endian data selection
		rest:		always 0 */
	//	Default CTRL_REG4_M = 0x00
	tempRegValue = 0;
	tempRegValue = (magZPerformance & 0x3) << 2;
	SPIwriteByte(PIN_M, CTRL_REG4_M, tempRegValue);
 160:	4c e0       	ldi	r20, 0x0C	; 12
 162:	63 e2       	ldi	r22, 0x23	; 35
 164:	82 e0       	ldi	r24, 0x02	; 2
 166:	0e 94 50 01 	call	0x2a0	; 0x2a0 <SPIwriteByte>
		bit 7:	fast read enable
		bit 6:	block data update for magnetic data
		rest:	always 0 */
	//	Default CTRL_REG5_M = 0x00
	tempRegValue = 0;
	SPIwriteByte(PIN_M, CTRL_REG5_M, tempRegValue);
 16a:	40 e0       	ldi	r20, 0x00	; 0
 16c:	64 e2       	ldi	r22, 0x24	; 36
 16e:	82 e0       	ldi	r24, 0x02	; 2
 170:	0e 94 50 01 	call	0x2a0	; 0x2a0 <SPIwriteByte>
 174:	08 95       	ret

00000176 <spiInit>:
#include <stdio.h>
#include "header.h"
#include "registers.h"

void spiInit(void){
	DDRB = (1<<DDB5)|(1<<DDB3)|(1<<DDB2)|(1<<DDB1)|(1<<DDB0);			// MOSI, SCK, CS_M and CS_AG output ||DDB0 is for testing
 176:	8f e2       	ldi	r24, 0x2F	; 47
 178:	84 b9       	out	0x04, r24	; 4
	PORTB = (1<<PORTB2)|(1<<PORTB1)|(1<<PORTB0);						// CS_M and CS_AG start HIGH || PORTB0 is for testing
 17a:	87 e0       	ldi	r24, 0x07	; 7
 17c:	85 b9       	out	0x05, r24	; 5
	SPCR = (1<<SPE)|(1<<MSTR)|(1<<CPOL)|(1<<CPHA)|(1<<SPR1)|(1<<SPR0);	// * SPI enable, Master mode, MSB first, Clockdiv 128
 17e:	8f e5       	ldi	r24, 0x5F	; 95
 180:	8c bd       	out	0x2c, r24	; 44
 182:	08 95       	ret

00000184 <spiTransfer>:
	
	return count;
}

uint8_t spiTransfer(uint8_t data) {
    SPDR = data;
 184:	8e bd       	out	0x2e, r24	; 46
     * The following NOP introduces a small delay that can prevent the wait
     * loop form iterating when running at the maximum speed. This gives
     * about 10% more speed, even if it seems counter-intuitive. At lower
     * speeds it is unnoticed.
     */
    asm volatile("nop");
 186:	00 00       	nop
    while (!(SPSR & _BV(SPIF))) ; // wait
 188:	0d b4       	in	r0, 0x2d	; 45
 18a:	07 fe       	sbrs	r0, 7
 18c:	fd cf       	rjmp	.-6      	; 0x188 <spiTransfer+0x4>
    return SPDR;
 18e:	8e b5       	in	r24, 0x2e	; 46
  }
 190:	08 95       	ret

00000192 <SPIreadBytes>:
	return temp;
}

uint8_t SPIreadBytes(uint8_t csPin, uint8_t subAddress,
uint8_t * dest, uint8_t count)
{
 192:	df 92       	push	r13
 194:	ef 92       	push	r14
 196:	ff 92       	push	r15
 198:	0f 93       	push	r16
 19a:	1f 93       	push	r17
 19c:	cf 93       	push	r28
 19e:	df 93       	push	r29
 1a0:	8a 01       	movw	r16, r20
 1a2:	d2 2e       	mov	r13, r18
	// To indicate a read, set bit 0 (msb) of first byte to 1
	uint8_t rAddress = 0x80 | (subAddress & 0x3F);
 1a4:	6f 73       	andi	r22, 0x3F	; 63
 1a6:	60 68       	ori	r22, 0x80	; 128
	// Mag SPI port is different. If we're reading multiple bytes,
	// set bit 1 to 1. The remaining six bytes are the address to be read
	if ((csPin == PIN_M) && count > 1)
 1a8:	82 30       	cpi	r24, 0x02	; 2
 1aa:	21 f4       	brne	.+8      	; 0x1b4 <SPIreadBytes+0x22>
 1ac:	91 e0       	ldi	r25, 0x01	; 1
 1ae:	92 17       	cp	r25, r18
 1b0:	08 f4       	brcc	.+2      	; 0x1b4 <SPIreadBytes+0x22>
	rAddress |= 0x40;
 1b2:	60 64       	ori	r22, 0x40	; 64
	
	PORTB &= ~(1<<csPin);	// Initiate communication
 1b4:	95 b1       	in	r25, 0x05	; 5
 1b6:	21 e0       	ldi	r18, 0x01	; 1
 1b8:	30 e0       	ldi	r19, 0x00	; 0
 1ba:	79 01       	movw	r14, r18
 1bc:	02 c0       	rjmp	.+4      	; 0x1c2 <SPIreadBytes+0x30>
 1be:	ee 0c       	add	r14, r14
 1c0:	ff 1c       	adc	r15, r15
 1c2:	8a 95       	dec	r24
 1c4:	e2 f7       	brpl	.-8      	; 0x1be <SPIreadBytes+0x2c>
 1c6:	8e 2d       	mov	r24, r14
 1c8:	80 95       	com	r24
 1ca:	89 23       	and	r24, r25
 1cc:	85 b9       	out	0x05, r24	; 5
	spiTransfer(rAddress);
 1ce:	86 2f       	mov	r24, r22
 1d0:	0e 94 c2 00 	call	0x184	; 0x184 <spiTransfer>
	for (int i=0; i<count; i++)
 1d4:	dd 20       	and	r13, r13
 1d6:	51 f0       	breq	.+20     	; 0x1ec <SPIreadBytes+0x5a>
 1d8:	e8 01       	movw	r28, r16
 1da:	0d 0d       	add	r16, r13
 1dc:	11 1d       	adc	r17, r1
	{
		dest[i] = spiTransfer(0x00); // Read into destination array
 1de:	80 e0       	ldi	r24, 0x00	; 0
 1e0:	0e 94 c2 00 	call	0x184	; 0x184 <spiTransfer>
 1e4:	89 93       	st	Y+, r24
	if ((csPin == PIN_M) && count > 1)
	rAddress |= 0x40;
	
	PORTB &= ~(1<<csPin);	// Initiate communication
	spiTransfer(rAddress);
	for (int i=0; i<count; i++)
 1e6:	c0 17       	cp	r28, r16
 1e8:	d1 07       	cpc	r29, r17
 1ea:	c9 f7       	brne	.-14     	; 0x1de <SPIreadBytes+0x4c>
	{
		dest[i] = spiTransfer(0x00); // Read into destination array
	}
	PORTB |= (1<<csPin); // Close communication
 1ec:	85 b1       	in	r24, 0x05	; 5
 1ee:	e8 2a       	or	r14, r24
 1f0:	e5 b8       	out	0x05, r14	; 5
	
	return count;
}
 1f2:	8d 2d       	mov	r24, r13
 1f4:	df 91       	pop	r29
 1f6:	cf 91       	pop	r28
 1f8:	1f 91       	pop	r17
 1fa:	0f 91       	pop	r16
 1fc:	ff 90       	pop	r15
 1fe:	ef 90       	pop	r14
 200:	df 90       	pop	r13
 202:	08 95       	ret

00000204 <SPIreadByte>:
																		// * Clock idle HIGH, Data Captured on Rising edge. SPI mode 3.
}


uint8_t SPIreadByte(uint8_t csPin, uint8_t subAddress)
{
 204:	cf 93       	push	r28
 206:	df 93       	push	r29
 208:	1f 92       	push	r1
 20a:	cd b7       	in	r28, 0x3d	; 61
 20c:	de b7       	in	r29, 0x3e	; 62
	uint8_t temp;
	// Use the multiple read function to read 1 byte.
	// Value is returned to `temp`.
	SPIreadBytes(csPin, subAddress, &temp, 1);
 20e:	21 e0       	ldi	r18, 0x01	; 1
 210:	ae 01       	movw	r20, r28
 212:	4f 5f       	subi	r20, 0xFF	; 255
 214:	5f 4f       	sbci	r21, 0xFF	; 255
 216:	0e 94 c9 00 	call	0x192	; 0x192 <SPIreadBytes>
	return temp;
}
 21a:	89 81       	ldd	r24, Y+1	; 0x01
 21c:	0f 90       	pop	r0
 21e:	df 91       	pop	r29
 220:	cf 91       	pop	r28
 222:	08 95       	ret

00000224 <WhoAmICheck>:
    asm volatile("nop");
    while (!(SPSR & _BV(SPIF))) ; // wait
    return SPDR;
  }
  
  void WhoAmICheck(void){
 224:	cf 93       	push	r28
 226:	df 93       	push	r29
	  uint8_t testM = 0x00;
	  uint8_t testXG = 0x00;
	  uint16_t whoAmICombined = 0x0000;
	  //spiWrite(PIN_M, CTRL_REG3_M, 0b00000111);		//Needed to read from the Magnetometer registers.
	  testXG = SPIreadByte(PIN_XG, WHO_AM_I_XG);
 228:	6f e0       	ldi	r22, 0x0F	; 15
 22a:	81 e0       	ldi	r24, 0x01	; 1
 22c:	0e 94 02 01 	call	0x204	; 0x204 <SPIreadByte>
 230:	c8 2f       	mov	r28, r24
	  testM = SPIreadByte(PIN_M, WHO_AM_I_M);
 232:	6f e0       	ldi	r22, 0x0F	; 15
 234:	82 e0       	ldi	r24, 0x02	; 2
 236:	0e 94 02 01 	call	0x204	; 0x204 <SPIreadByte>
	  whoAmICombined = (testXG << 8) | testM;
 23a:	d0 e0       	ldi	r29, 0x00	; 0
 23c:	dc 2f       	mov	r29, r28
 23e:	cc 27       	eor	r28, r28
 240:	c8 2b       	or	r28, r24
	  printString("\r\n WHO_AM_I_CHECK (correct result is 26685: ");
 242:	8f eb       	ldi	r24, 0xBF	; 191
 244:	91 e0       	ldi	r25, 0x01	; 1
 246:	0e 94 87 01 	call	0x30e	; 0x30e <printString>
	  printWord(whoAmICombined);
 24a:	ce 01       	movw	r24, r28
 24c:	0e 94 cd 01 	call	0x39a	; 0x39a <printWord>
	  while(whoAmICombined != ((WHO_AM_I_AG_RSP << 8) | WHO_AM_I_M_RSP)){
 250:	cd 33       	cpi	r28, 0x3D	; 61
 252:	d8 46       	sbci	r29, 0x68	; 104
 254:	11 f1       	breq	.+68     	; 0x29a <WhoAmICheck+0x76>
		  testM = SPIreadByte(PIN_M, WHO_AM_I_M);
 256:	6f e0       	ldi	r22, 0x0F	; 15
 258:	82 e0       	ldi	r24, 0x02	; 2
 25a:	0e 94 02 01 	call	0x204	; 0x204 <SPIreadByte>
 25e:	c8 2f       	mov	r28, r24
		  testXG = SPIreadByte(PIN_XG, WHO_AM_I_XG);
 260:	6f e0       	ldi	r22, 0x0F	; 15
 262:	81 e0       	ldi	r24, 0x01	; 1
 264:	0e 94 02 01 	call	0x204	; 0x204 <SPIreadByte>
		  whoAmICombined = (testXG << 8) | (testM);
 268:	d0 e0       	ldi	r29, 0x00	; 0
 26a:	d8 2b       	or	r29, r24
		  printString("\r\n WHO_AM_I_CHECK (correct result is 26685: ");
 26c:	8f eb       	ldi	r24, 0xBF	; 191
 26e:	91 e0       	ldi	r25, 0x01	; 1
 270:	0e 94 87 01 	call	0x30e	; 0x30e <printString>
		  printWord(whoAmICombined);
 274:	ce 01       	movw	r24, r28
 276:	0e 94 cd 01 	call	0x39a	; 0x39a <printWord>
		  printString("");
 27a:	8e eb       	ldi	r24, 0xBE	; 190
 27c:	91 e0       	ldi	r25, 0x01	; 1
 27e:	0e 94 87 01 	call	0x30e	; 0x30e <printString>
 282:	8f ef       	ldi	r24, 0xFF	; 255
 284:	91 ee       	ldi	r25, 0xE1	; 225
 286:	24 e0       	ldi	r18, 0x04	; 4
 288:	81 50       	subi	r24, 0x01	; 1
 28a:	90 40       	sbci	r25, 0x00	; 0
 28c:	20 40       	sbci	r18, 0x00	; 0
 28e:	e1 f7       	brne	.-8      	; 0x288 <WhoAmICheck+0x64>
 290:	00 c0       	rjmp	.+0      	; 0x292 <WhoAmICheck+0x6e>
 292:	00 00       	nop
	  testXG = SPIreadByte(PIN_XG, WHO_AM_I_XG);
	  testM = SPIreadByte(PIN_M, WHO_AM_I_M);
	  whoAmICombined = (testXG << 8) | testM;
	  printString("\r\n WHO_AM_I_CHECK (correct result is 26685: ");
	  printWord(whoAmICombined);
	  while(whoAmICombined != ((WHO_AM_I_AG_RSP << 8) | WHO_AM_I_M_RSP)){
 294:	cd 33       	cpi	r28, 0x3D	; 61
 296:	d8 46       	sbci	r29, 0x68	; 104
 298:	f1 f6       	brne	.-68     	; 0x256 <WhoAmICheck+0x32>
		  printString("\r\n WHO_AM_I_CHECK (correct result is 26685: ");
		  printWord(whoAmICombined);
		  printString("");
		  _delay_ms(100);
	  }
  }
 29a:	df 91       	pop	r29
 29c:	cf 91       	pop	r28
 29e:	08 95       	ret

000002a0 <SPIwriteByte>:
  
  void SPIwriteByte(uint8_t csPin, uint8_t subAddress, uint8_t data)
  {
 2a0:	1f 93       	push	r17
 2a2:	cf 93       	push	r28
 2a4:	df 93       	push	r29
 2a6:	14 2f       	mov	r17, r20
	  PORTB &= ~(1<<csPin); // Initiate communication
 2a8:	95 b1       	in	r25, 0x05	; 5
 2aa:	c1 e0       	ldi	r28, 0x01	; 1
 2ac:	d0 e0       	ldi	r29, 0x00	; 0
 2ae:	02 c0       	rjmp	.+4      	; 0x2b4 <SPIwriteByte+0x14>
 2b0:	cc 0f       	add	r28, r28
 2b2:	dd 1f       	adc	r29, r29
 2b4:	8a 95       	dec	r24
 2b6:	e2 f7       	brpl	.-8      	; 0x2b0 <SPIwriteByte+0x10>
 2b8:	8c 2f       	mov	r24, r28
 2ba:	80 95       	com	r24
 2bc:	98 23       	and	r25, r24
 2be:	95 b9       	out	0x05, r25	; 5
	  
	  // If write, bit 0 (MSB) should be 0
	  // If single write, bit 1 should be 0
	  spiTransfer(subAddress & 0x3F); // Send Address
 2c0:	86 2f       	mov	r24, r22
 2c2:	8f 73       	andi	r24, 0x3F	; 63
 2c4:	0e 94 c2 00 	call	0x184	; 0x184 <spiTransfer>
	  spiTransfer(data); // Send data
 2c8:	81 2f       	mov	r24, r17
 2ca:	0e 94 c2 00 	call	0x184	; 0x184 <spiTransfer>
	  
	  PORTB |= (1<<csPin); // Close communication
 2ce:	85 b1       	in	r24, 0x05	; 5
 2d0:	c8 2b       	or	r28, r24
 2d2:	c5 b9       	out	0x05, r28	; 5
 2d4:	df 91       	pop	r29
 2d6:	cf 91       	pop	r28
 2d8:	1f 91       	pop	r17
 2da:	08 95       	ret

000002dc <initUSART>:
      myString[i] = response;                       /* add in a letter */
      i++;
    }
  }
  myString[i] = 0;                          /* terminal NULL character */
}
 2dc:	10 92 c5 00 	sts	0x00C5, r1	; 0x8000c5 <__TEXT_REGION_LENGTH__+0x7e00c5>
 2e0:	87 e6       	ldi	r24, 0x67	; 103
 2e2:	80 93 c4 00 	sts	0x00C4, r24	; 0x8000c4 <__TEXT_REGION_LENGTH__+0x7e00c4>
 2e6:	e0 ec       	ldi	r30, 0xC0	; 192
 2e8:	f0 e0       	ldi	r31, 0x00	; 0
 2ea:	80 81       	ld	r24, Z
 2ec:	8d 7f       	andi	r24, 0xFD	; 253
 2ee:	80 83       	st	Z, r24
 2f0:	88 e1       	ldi	r24, 0x18	; 24
 2f2:	80 93 c1 00 	sts	0x00C1, r24	; 0x8000c1 <__TEXT_REGION_LENGTH__+0x7e00c1>
 2f6:	86 e0       	ldi	r24, 0x06	; 6
 2f8:	80 93 c2 00 	sts	0x00C2, r24	; 0x8000c2 <__TEXT_REGION_LENGTH__+0x7e00c2>
 2fc:	08 95       	ret

000002fe <transmitByte>:
 2fe:	e0 ec       	ldi	r30, 0xC0	; 192
 300:	f0 e0       	ldi	r31, 0x00	; 0
 302:	90 81       	ld	r25, Z
 304:	95 ff       	sbrs	r25, 5
 306:	fd cf       	rjmp	.-6      	; 0x302 <transmitByte+0x4>
 308:	80 93 c6 00 	sts	0x00C6, r24	; 0x8000c6 <__TEXT_REGION_LENGTH__+0x7e00c6>
 30c:	08 95       	ret

0000030e <printString>:
 30e:	0f 93       	push	r16
 310:	1f 93       	push	r17
 312:	cf 93       	push	r28
 314:	fc 01       	movw	r30, r24
 316:	80 81       	ld	r24, Z
 318:	88 23       	and	r24, r24
 31a:	59 f0       	breq	.+22     	; 0x332 <printString+0x24>
 31c:	8f 01       	movw	r16, r30
 31e:	c0 e0       	ldi	r28, 0x00	; 0
 320:	0e 94 7f 01 	call	0x2fe	; 0x2fe <transmitByte>
 324:	cf 5f       	subi	r28, 0xFF	; 255
 326:	f8 01       	movw	r30, r16
 328:	ec 0f       	add	r30, r28
 32a:	f1 1d       	adc	r31, r1
 32c:	80 81       	ld	r24, Z
 32e:	81 11       	cpse	r24, r1
 330:	f7 cf       	rjmp	.-18     	; 0x320 <printString+0x12>
 332:	cf 91       	pop	r28
 334:	1f 91       	pop	r17
 336:	0f 91       	pop	r16
 338:	08 95       	ret

0000033a <printByte>:

void printByte(uint8_t byte) {
 33a:	cf 93       	push	r28
 33c:	df 93       	push	r29
 33e:	d8 2f       	mov	r29, r24
              /* Converts a byte to a string of decimal text, sends it */
  transmitByte('0' + (byte / 100));                        /* Hundreds */
 340:	89 e2       	ldi	r24, 0x29	; 41
 342:	d8 9f       	mul	r29, r24
 344:	81 2d       	mov	r24, r1
 346:	11 24       	eor	r1, r1
 348:	82 95       	swap	r24
 34a:	8f 70       	andi	r24, 0x0F	; 15
 34c:	80 5d       	subi	r24, 0xD0	; 208
 34e:	0e 94 7f 01 	call	0x2fe	; 0x2fe <transmitByte>
  transmitByte('0' + ((byte / 10) % 10));                      /* Tens */
 352:	9d ec       	ldi	r25, 0xCD	; 205
 354:	d9 9f       	mul	r29, r25
 356:	c1 2d       	mov	r28, r1
 358:	11 24       	eor	r1, r1
 35a:	c6 95       	lsr	r28
 35c:	c6 95       	lsr	r28
 35e:	c6 95       	lsr	r28
 360:	c9 9f       	mul	r28, r25
 362:	91 2d       	mov	r25, r1
 364:	11 24       	eor	r1, r1
 366:	96 95       	lsr	r25
 368:	96 95       	lsr	r25
 36a:	96 95       	lsr	r25
 36c:	99 0f       	add	r25, r25
 36e:	89 2f       	mov	r24, r25
 370:	88 0f       	add	r24, r24
 372:	88 0f       	add	r24, r24
 374:	98 0f       	add	r25, r24
 376:	8c 2f       	mov	r24, r28
 378:	89 1b       	sub	r24, r25
 37a:	80 5d       	subi	r24, 0xD0	; 208
 37c:	0e 94 7f 01 	call	0x2fe	; 0x2fe <transmitByte>
  transmitByte('0' + (byte % 10));                             /* Ones */
 380:	cc 0f       	add	r28, r28
 382:	8c 2f       	mov	r24, r28
 384:	88 0f       	add	r24, r24
 386:	88 0f       	add	r24, r24
 388:	c8 0f       	add	r28, r24
 38a:	8d 2f       	mov	r24, r29
 38c:	8c 1b       	sub	r24, r28
 38e:	80 5d       	subi	r24, 0xD0	; 208
 390:	0e 94 7f 01 	call	0x2fe	; 0x2fe <transmitByte>
}
 394:	df 91       	pop	r29
 396:	cf 91       	pop	r28
 398:	08 95       	ret

0000039a <printWord>:

void printWord(uint16_t word) {
 39a:	0f 93       	push	r16
 39c:	1f 93       	push	r17
 39e:	cf 93       	push	r28
 3a0:	df 93       	push	r29
 3a2:	8c 01       	movw	r16, r24
  transmitByte('0' + (word / 10000));                 /* Ten-thousands */
 3a4:	9c 01       	movw	r18, r24
 3a6:	32 95       	swap	r19
 3a8:	22 95       	swap	r18
 3aa:	2f 70       	andi	r18, 0x0F	; 15
 3ac:	23 27       	eor	r18, r19
 3ae:	3f 70       	andi	r19, 0x0F	; 15
 3b0:	23 27       	eor	r18, r19
 3b2:	a7 e4       	ldi	r26, 0x47	; 71
 3b4:	b3 e0       	ldi	r27, 0x03	; 3
 3b6:	0e 94 7b 02 	call	0x4f6	; 0x4f6 <__umulhisi3>
 3ba:	96 95       	lsr	r25
 3bc:	87 95       	ror	r24
 3be:	96 95       	lsr	r25
 3c0:	87 95       	ror	r24
 3c2:	96 95       	lsr	r25
 3c4:	87 95       	ror	r24
 3c6:	80 5d       	subi	r24, 0xD0	; 208
 3c8:	0e 94 7f 01 	call	0x2fe	; 0x2fe <transmitByte>
  transmitByte('0' + ((word / 1000) % 10));               /* Thousands */
 3cc:	98 01       	movw	r18, r16
 3ce:	36 95       	lsr	r19
 3d0:	27 95       	ror	r18
 3d2:	36 95       	lsr	r19
 3d4:	27 95       	ror	r18
 3d6:	36 95       	lsr	r19
 3d8:	27 95       	ror	r18
 3da:	a5 ec       	ldi	r26, 0xC5	; 197
 3dc:	b0 e2       	ldi	r27, 0x20	; 32
 3de:	0e 94 7b 02 	call	0x4f6	; 0x4f6 <__umulhisi3>
 3e2:	ac 01       	movw	r20, r24
 3e4:	52 95       	swap	r21
 3e6:	42 95       	swap	r20
 3e8:	4f 70       	andi	r20, 0x0F	; 15
 3ea:	45 27       	eor	r20, r21
 3ec:	5f 70       	andi	r21, 0x0F	; 15
 3ee:	45 27       	eor	r20, r21
 3f0:	9a 01       	movw	r18, r20
 3f2:	ad ec       	ldi	r26, 0xCD	; 205
 3f4:	bc ec       	ldi	r27, 0xCC	; 204
 3f6:	0e 94 7b 02 	call	0x4f6	; 0x4f6 <__umulhisi3>
 3fa:	96 95       	lsr	r25
 3fc:	87 95       	ror	r24
 3fe:	96 95       	lsr	r25
 400:	87 95       	ror	r24
 402:	96 95       	lsr	r25
 404:	87 95       	ror	r24
 406:	9c 01       	movw	r18, r24
 408:	22 0f       	add	r18, r18
 40a:	33 1f       	adc	r19, r19
 40c:	88 0f       	add	r24, r24
 40e:	99 1f       	adc	r25, r25
 410:	88 0f       	add	r24, r24
 412:	99 1f       	adc	r25, r25
 414:	88 0f       	add	r24, r24
 416:	99 1f       	adc	r25, r25
 418:	82 0f       	add	r24, r18
 41a:	93 1f       	adc	r25, r19
 41c:	9a 01       	movw	r18, r20
 41e:	28 1b       	sub	r18, r24
 420:	39 0b       	sbc	r19, r25
 422:	c9 01       	movw	r24, r18
 424:	80 5d       	subi	r24, 0xD0	; 208
 426:	0e 94 7f 01 	call	0x2fe	; 0x2fe <transmitByte>
  transmitByte('0' + ((word / 100) % 10));                 /* Hundreds */
 42a:	98 01       	movw	r18, r16
 42c:	36 95       	lsr	r19
 42e:	27 95       	ror	r18
 430:	36 95       	lsr	r19
 432:	27 95       	ror	r18
 434:	ab e7       	ldi	r26, 0x7B	; 123
 436:	b4 e1       	ldi	r27, 0x14	; 20
 438:	0e 94 7b 02 	call	0x4f6	; 0x4f6 <__umulhisi3>
 43c:	ac 01       	movw	r20, r24
 43e:	56 95       	lsr	r21
 440:	47 95       	ror	r20
 442:	9a 01       	movw	r18, r20
 444:	ad ec       	ldi	r26, 0xCD	; 205
 446:	bc ec       	ldi	r27, 0xCC	; 204
 448:	0e 94 7b 02 	call	0x4f6	; 0x4f6 <__umulhisi3>
 44c:	96 95       	lsr	r25
 44e:	87 95       	ror	r24
 450:	96 95       	lsr	r25
 452:	87 95       	ror	r24
 454:	96 95       	lsr	r25
 456:	87 95       	ror	r24
 458:	9c 01       	movw	r18, r24
 45a:	22 0f       	add	r18, r18
 45c:	33 1f       	adc	r19, r19
 45e:	88 0f       	add	r24, r24
 460:	99 1f       	adc	r25, r25
 462:	88 0f       	add	r24, r24
 464:	99 1f       	adc	r25, r25
 466:	88 0f       	add	r24, r24
 468:	99 1f       	adc	r25, r25
 46a:	82 0f       	add	r24, r18
 46c:	93 1f       	adc	r25, r19
 46e:	9a 01       	movw	r18, r20
 470:	28 1b       	sub	r18, r24
 472:	39 0b       	sbc	r19, r25
 474:	c9 01       	movw	r24, r18
 476:	80 5d       	subi	r24, 0xD0	; 208
 478:	0e 94 7f 01 	call	0x2fe	; 0x2fe <transmitByte>
  transmitByte('0' + ((word / 10) % 10));                      /* Tens */
 47c:	98 01       	movw	r18, r16
 47e:	ad ec       	ldi	r26, 0xCD	; 205
 480:	bc ec       	ldi	r27, 0xCC	; 204
 482:	0e 94 7b 02 	call	0x4f6	; 0x4f6 <__umulhisi3>
 486:	ec 01       	movw	r28, r24
 488:	d6 95       	lsr	r29
 48a:	c7 95       	ror	r28
 48c:	d6 95       	lsr	r29
 48e:	c7 95       	ror	r28
 490:	d6 95       	lsr	r29
 492:	c7 95       	ror	r28
 494:	9e 01       	movw	r18, r28
 496:	0e 94 7b 02 	call	0x4f6	; 0x4f6 <__umulhisi3>
 49a:	96 95       	lsr	r25
 49c:	87 95       	ror	r24
 49e:	96 95       	lsr	r25
 4a0:	87 95       	ror	r24
 4a2:	96 95       	lsr	r25
 4a4:	87 95       	ror	r24
 4a6:	9c 01       	movw	r18, r24
 4a8:	22 0f       	add	r18, r18
 4aa:	33 1f       	adc	r19, r19
 4ac:	88 0f       	add	r24, r24
 4ae:	99 1f       	adc	r25, r25
 4b0:	88 0f       	add	r24, r24
 4b2:	99 1f       	adc	r25, r25
 4b4:	88 0f       	add	r24, r24
 4b6:	99 1f       	adc	r25, r25
 4b8:	82 0f       	add	r24, r18
 4ba:	93 1f       	adc	r25, r19
 4bc:	9e 01       	movw	r18, r28
 4be:	28 1b       	sub	r18, r24
 4c0:	39 0b       	sbc	r19, r25
 4c2:	c9 01       	movw	r24, r18
 4c4:	80 5d       	subi	r24, 0xD0	; 208
 4c6:	0e 94 7f 01 	call	0x2fe	; 0x2fe <transmitByte>
  transmitByte('0' + (word % 10));                             /* Ones */
 4ca:	ce 01       	movw	r24, r28
 4cc:	88 0f       	add	r24, r24
 4ce:	99 1f       	adc	r25, r25
 4d0:	cc 0f       	add	r28, r28
 4d2:	dd 1f       	adc	r29, r29
 4d4:	cc 0f       	add	r28, r28
 4d6:	dd 1f       	adc	r29, r29
 4d8:	cc 0f       	add	r28, r28
 4da:	dd 1f       	adc	r29, r29
 4dc:	c8 0f       	add	r28, r24
 4de:	d9 1f       	adc	r29, r25
 4e0:	c8 01       	movw	r24, r16
 4e2:	8c 1b       	sub	r24, r28
 4e4:	9d 0b       	sbc	r25, r29
 4e6:	80 5d       	subi	r24, 0xD0	; 208
 4e8:	0e 94 7f 01 	call	0x2fe	; 0x2fe <transmitByte>
}
 4ec:	df 91       	pop	r29
 4ee:	cf 91       	pop	r28
 4f0:	1f 91       	pop	r17
 4f2:	0f 91       	pop	r16
 4f4:	08 95       	ret

000004f6 <__umulhisi3>:
 4f6:	a2 9f       	mul	r26, r18
 4f8:	b0 01       	movw	r22, r0
 4fa:	b3 9f       	mul	r27, r19
 4fc:	c0 01       	movw	r24, r0
 4fe:	a3 9f       	mul	r26, r19
 500:	70 0d       	add	r23, r0
 502:	81 1d       	adc	r24, r1
 504:	11 24       	eor	r1, r1
 506:	91 1d       	adc	r25, r1
 508:	b2 9f       	mul	r27, r18
 50a:	70 0d       	add	r23, r0
 50c:	81 1d       	adc	r24, r1
 50e:	11 24       	eor	r1, r1
 510:	91 1d       	adc	r25, r1
 512:	08 95       	ret

00000514 <_exit>:
 514:	f8 94       	cli

00000516 <__stop_program>:
 516:	ff cf       	rjmp	.-2      	; 0x516 <__stop_program>
